target datalayout = "e-m:e-p270:32:32-p271:32:32-p272:64:64-i64:64-i128:128-f80:128-n8:16:32:64-S128"
target triple = "x86_64-pc-linux-gnu"

; Function Attrs: mustprogress nounwind uwtable
define linkonce_odr noundef i32 @_Z3bitii(i32 noundef %0, i32 noundef %1) #0 comdat {
  %3 = alloca i32, align 4
  %4 = alloca i32, align 4
  store i32 %0, ptr %3, align 4
  store i32 %1, ptr %4, align 4
  %5 = load i32, ptr %3, align 4
  %6 = load i32, ptr %4, align 4
  %7 = shl i32 1, %6
  %8 = and i32 %5, %7
  %9 = load i32, ptr %4, align 4
  %10 = ashr i32 %8, %9
  ret i32 %10
}

; Function Attrs: mustprogress uwtable
define void @_Z10duIntToColiPf(i32 noundef %0, ptr noundef %1) #2 {
  %3 = alloca i32, align 4
  %4 = alloca ptr, align 8
  %5 = alloca i32, align 4
  %6 = alloca i32, align 4
  %7 = alloca i32, align 4
  store i32 %0, ptr %3, align 4
  store ptr %1, ptr %4, align 8
  %8 = load i32, ptr %3, align 4
  %9 = call noundef i32 @_Z3bitii(i32 noundef %8, i32 noundef 0)
  %10 = load i32, ptr %3, align 4
  %11 = call noundef i32 @_Z3bitii(i32 noundef %10, i32 noundef 3)
  %12 = mul nsw i32 %11, 2
  %13 = add nsw i32 %9, %12
  %14 = add nsw i32 %13, 1
  store i32 %14, ptr %5, align 4
  %15 = load i32, ptr %3, align 4
  %16 = call noundef i32 @_Z3bitii(i32 noundef %15, i32 noundef 1)
  %17 = load i32, ptr %3, align 4
  %18 = call noundef i32 @_Z3bitii(i32 noundef %17, i32 noundef 4)
  %19 = mul nsw i32 %18, 2
  %20 = add nsw i32 %16, %19
  %21 = add nsw i32 %20, 1
  store i32 %21, ptr %6, align 4
  %22 = load i32, ptr %3, align 4
  %23 = call noundef i32 @_Z3bitii(i32 noundef %22, i32 noundef 2)
  %24 = load i32, ptr %3, align 4
  %25 = call noundef i32 @_Z3bitii(i32 noundef %24, i32 noundef 5)
  %26 = mul nsw i32 %25, 2
  %27 = add nsw i32 %23, %26
  %28 = add nsw i32 %27, 1
  store i32 %28, ptr %7, align 4
  %29 = load i32, ptr %5, align 4
  %30 = sitofp i32 %29 to float
  %31 = fmul float %30, 6.300000e+01
  %32 = fdiv float %31, 2.550000e+02
  %33 = fsub float 1.000000e+00, %32
  %34 = load ptr, ptr %4, align 8
  %35 = getelementptr inbounds float, ptr %34, i64 0
  store float %33, ptr %35, align 4
  %36 = load i32, ptr %6, align 4
  %37 = sitofp i32 %36 to float
  %38 = fmul float %37, 6.300000e+01
  %39 = fdiv float %38, 2.550000e+02
  %40 = fsub float 1.000000e+00, %39
  %41 = load ptr, ptr %4, align 8
  %42 = getelementptr inbounds float, ptr %41, i64 1
  store float %40, ptr %42, align 4
  %43 = load i32, ptr %7, align 4
  %44 = sitofp i32 %43 to float
  %45 = fmul float %44, 6.300000e+01
  %46 = fdiv float %45, 2.550000e+02
  %47 = fsub float 1.000000e+00, %46
  %48 = load ptr, ptr %4, align 8
  %49 = getelementptr inbounds float, ptr %48, i64 2
  store float %47, ptr %49, align 4
  ret void
}