; Function Attrs: mustprogress nofree norecurse nosync nounwind willreturn memory(argmem: write) uwtable
define void @_Z10duIntToColiPf(i32 noundef %0, ptr nocapture noundef writeonly %1) local_unnamed_addr #3 {
  %3 = and i32 %0, 1
  %4 = lshr i32 %0, 2
  %5 = and i32 %4, 2
  %6 = or disjoint i32 %5, %3
  %7 = lshr i32 %0, 1
  %8 = and i32 %7, 1
  %9 = lshr i32 %0, 3
  %10 = and i32 %9, 2
  %11 = or disjoint i32 %8, %10
  %12 = and i32 %4, 1
  %13 = lshr i32 %0, 4
  %14 = and i32 %13, 2
  %15 = or disjoint i32 %12, %14
  %16 = mul nuw nsw i32 %6, 63
  %17 = add nuw nsw i32 %16, 63
  %18 = uitofp i32 %17 to float
  %19 = fdiv float %18, 2.550000e+02
  %20 = fsub float 1.000000e+00, %19
  store float %20, ptr %1, align 4
  %21 = mul nuw nsw i32 %11, 63
  %22 = add nuw nsw i32 %21, 63
  %23 = uitofp i32 %22 to float
  %24 = fdiv float %23, 2.550000e+02
  %25 = fsub float 1.000000e+00, %24
  %26 = getelementptr inbounds i8, ptr %1, i64 4
  store float %25, ptr %26, align 4
  %27 = mul nuw nsw i32 %15, 63
  %28 = add nuw nsw i32 %27, 63
  %29 = uitofp i32 %28 to float
  %30 = fdiv float %29, 2.550000e+02
  %31 = fsub float 1.000000e+00, %30
  %32 = getelementptr inbounds i8, ptr %1, i64 8
  store float %31, ptr %32, align 4
  ret void
}